target datalayout = "e-m:e-p270:32:32-p271:32:32-p272:64:64-i64:64-i128:128-f80:128-n8:16:32:64-S128"
target triple = "x86_64-pc-linux-gnu"

%struct.rb_data_type_struct = type { ptr, %struct.anon, ptr, ptr, i64 }
%struct.anon = type { ptr, ptr, ptr, ptr, [1 x ptr] }

@cBN = global i64 0, align 8
@ossl_bn_type = internal constant %struct.rb_data_type_struct { ptr @.str.62, %struct.anon { ptr null, ptr @ossl_bn_free, ptr null, ptr null, [1 x ptr] zeroinitializer }, ptr null, ptr null, i64 289 }, align 8
@rb_eRuntimeError = external global i64, align 8
@.str = private unnamed_addr constant [23 x i8] c"BN wasn't initialized!\00", align 1

; Function Attrs: nounwind sspstrong uwtable
define internal i64 @ossl_bn_eql(i64 noundef %0, i64 noundef %1) #0 {
  %3 = alloca i64, align 8
  %4 = alloca i64, align 8
  %5 = alloca i64, align 8
  %6 = alloca ptr, align 8
  %7 = alloca ptr, align 8
  %8 = alloca i32, align 4
  store i64 %0, ptr %4, align 8, !tbaa !11
  store i64 %1, ptr %5, align 8, !tbaa !11
  call void @llvm.lifetime.start.p0(i64 8, ptr %6) #20
  call void @llvm.lifetime.start.p0(i64 8, ptr %7) #20
  %9 = load i64, ptr %5, align 8, !tbaa !11
  %10 = load i64, ptr @cBN, align 8, !tbaa !11
  %11 = call i64 @rb_obj_is_kind_of(i64 noundef %9, i64 noundef %10)
  %12 = icmp ne i64 %11, 0
  br i1 %12, label %14, label %13

13:                                               ; preds = %2
  store i64 0, ptr %3, align 8
  store i32 1, ptr %8, align 4
  br label %40

14:                                               ; preds = %2
  br label %15

15:                                               ; preds = %14
  %16 = load i64, ptr %4, align 8, !tbaa !11
  %17 = call ptr @rb_check_typeddata(i64 noundef %16, ptr noundef @ossl_bn_type)
  store ptr %17, ptr %6, align 8, !tbaa !6
  %18 = load ptr, ptr %6, align 8, !tbaa !6
  %19 = icmp ne ptr %18, null
  br i1 %19, label %22, label %20

20:                                               ; preds = %15
  %21 = load i64, ptr @rb_eRuntimeError, align 8, !tbaa !11
  call void (i64, ptr, ...) @ossl_raise(i64 noundef %21, ptr noundef @.str) #21
  unreachable

22:                                               ; preds = %15
  br label %23

23:                                               ; preds = %22
  br label %24

24:                                               ; preds = %23
  br label %25

25:                                               ; preds = %24
  %26 = load i64, ptr %5, align 8, !tbaa !11
  %27 = call ptr @rb_check_typeddata(i64 noundef %26, ptr noundef @ossl_bn_type)
  store ptr %27, ptr %7, align 8, !tbaa !6
  %28 = load ptr, ptr %7, align 8, !tbaa !6
  %29 = icmp ne ptr %28, null
  br i1 %29, label %32, label %30

30:                                               ; preds = %25
  %31 = load i64, ptr @rb_eRuntimeError, align 8, !tbaa !11
  call void (i64, ptr, ...) @ossl_raise(i64 noundef %31, ptr noundef @.str) #21
  unreachable

32:                                               ; preds = %25
  br label %33

33:                                               ; preds = %32
  br label %34

34:                                               ; preds = %33
  %35 = load ptr, ptr %6, align 8, !tbaa !6
  %36 = load ptr, ptr %7, align 8, !tbaa !6
  %37 = call i32 @BN_cmp(ptr noundef %35, ptr noundef %36)
  %38 = icmp ne i32 %37, 0
  %39 = select i1 %38, i64 0, i64 20
  store i64 %39, ptr %3, align 8
  store i32 1, ptr %8, align 4
  br label %40

40:                                               ; preds = %34, %13
  call void @llvm.lifetime.end.p0(i64 8, ptr %7) #20
  call void @llvm.lifetime.end.p0(i64 8, ptr %6) #20
  %41 = load i64, ptr %3, align 8
  ret i64 %41
}