; Function Attrs: nounwind sspstrong uwtable
define internal range(i64 0, 21) i64 @ossl_bn_eql(i64 noundef %0, i64 noundef %1) #0 {
  %3 = load i64, ptr @cBN, align 8, !tbaa !6
  %4 = tail call i64 @rb_obj_is_kind_of(i64 noundef %1, i64 noundef %3) #11
  %.not = icmp eq i64 %4, 0
  br i1 %.not, label %16, label %5

5:                                                ; preds = %2
  %6 = tail call ptr @rb_check_typeddata(i64 noundef %0, ptr noundef nonnull @ossl_bn_type) #11
  %.not9 = icmp eq ptr %6, null
  br i1 %.not9, label %7, label %9

7:                                                ; preds = %5
  %8 = load i64, ptr @rb_eRuntimeError, align 8, !tbaa !6
  tail call void (i64, ptr, ...) @ossl_raise(i64 noundef %8, ptr noundef nonnull @.str) #12
  unreachable

9:                                                ; preds = %5
  %10 = tail call ptr @rb_check_typeddata(i64 noundef %1, ptr noundef nonnull @ossl_bn_type) #11
  %.not10 = icmp eq ptr %10, null
  br i1 %.not10, label %11, label %13

11:                                               ; preds = %9
  %12 = load i64, ptr @rb_eRuntimeError, align 8, !tbaa !6
  tail call void (i64, ptr, ...) @ossl_raise(i64 noundef %12, ptr noundef nonnull @.str) #12
  unreachable

13:                                               ; preds = %9
  %14 = tail call i32 @BN_cmp(ptr noundef nonnull %6, ptr noundef nonnull %10) #11
  %.not11 = icmp eq i32 %14, 0
  %15 = select i1 %.not11, i64 20, i64 0
  br label %16

16:                                               ; preds = %2, %13
  %.0 = phi i64 [ %15, %13 ], [ 0, %2 ]
  ret i64 %.0
}